target datalayout = "e-m:e-p270:32:32-p271:32:32-p272:64:64-i64:64-i128:128-f80:128-n8:16:32:64-S128"
target triple = "x86_64-pc-linux-gnu"

%struct.InterpFilterParams = type { ptr, i16, i8 }
%struct.ConvolveParams = type { i32, ptr, i32, i32, i32, i32, i32, i32, i32, i32 }

; Function Attrs: nounwind uwtable
define internal i32 @clamp(i32 noundef %0, i32 noundef %1, i32 noundef %2) #0 {
  %4 = alloca i32, align 4
  %5 = alloca i32, align 4
  %6 = alloca i32, align 4
  store i32 %0, ptr %4, align 4
  store i32 %1, ptr %5, align 4
  store i32 %2, ptr %6, align 4
  %7 = load i32, ptr %4, align 4
  %8 = load i32, ptr %5, align 4
  %9 = icmp slt i32 %7, %8
  br i1 %9, label %10, label %12

10:                                               ; preds = %3
  %11 = load i32, ptr %5, align 4
  br label %22

12:                                               ; preds = %3
  %13 = load i32, ptr %4, align 4
  %14 = load i32, ptr %6, align 4
  %15 = icmp sgt i32 %13, %14
  br i1 %15, label %16, label %18

16:                                               ; preds = %12
  %17 = load i32, ptr %6, align 4
  br label %20

18:                                               ; preds = %12
  %19 = load i32, ptr %4, align 4
  br label %20

20:                                               ; preds = %18, %16
  %21 = phi i32 [ %17, %16 ], [ %19, %18 ]
  br label %22

22:                                               ; preds = %20, %10
  %23 = phi i32 [ %11, %10 ], [ %21, %20 ]
  ret i32 %23
}

; Function Attrs: nounwind uwtable
define internal zeroext i16 @clip_pixel_highbd(i32 noundef %0, i32 noundef %1) #0 {
  %3 = alloca i16, align 2
  %4 = alloca i32, align 4
  %5 = alloca i32, align 4
  store i32 %0, ptr %4, align 4
  store i32 %1, ptr %5, align 4
  %6 = load i32, ptr %5, align 4
  switch i32 %6, label %8 [
    i32 8, label %7
    i32 10, label %12
    i32 12, label %16
  ]

7:                                                ; preds = %2
  br label %8

8:                                                ; preds = %7, %2
  %9 = load i32, ptr %4, align 4
  %10 = call i32 @clamp(i32 noundef %9, i32 noundef 0, i32 noundef 255)
  %11 = trunc i32 %10 to i16
  store i16 %11, ptr %3, align 2
  br label %20

12:                                               ; preds = %2
  %13 = load i32, ptr %4, align 4
  %14 = call i32 @clamp(i32 noundef %13, i32 noundef 0, i32 noundef 1023)
  %15 = trunc i32 %14 to i16
  store i16 %15, ptr %3, align 2
  br label %20

16:                                               ; preds = %2
  %17 = load i32, ptr %4, align 4
  %18 = call i32 @clamp(i32 noundef %17, i32 noundef 0, i32 noundef 4095)
  %19 = trunc i32 %18 to i16
  store i16 %19, ptr %3, align 2
  br label %20

20:                                               ; preds = %16, %12, %8
  %21 = load i16, ptr %3, align 2
  ret i16 %21
}

; Function Attrs: nounwind uwtable
define internal ptr @av1_get_interp_filter_subpel_kernel(ptr noundef %0, i32 noundef %1) #0 {
  %3 = alloca ptr, align 8
  %4 = alloca i32, align 4
  store ptr %0, ptr %3, align 8
  store i32 %1, ptr %4, align 4
  %5 = load ptr, ptr %3, align 8
  %6 = getelementptr inbounds nuw %struct.InterpFilterParams, ptr %5, i32 0, i32 0
  %7 = load ptr, ptr %6, align 8
  %8 = load ptr, ptr %3, align 8
  %9 = getelementptr inbounds nuw %struct.InterpFilterParams, ptr %8, i32 0, i32 1
  %10 = load i16, ptr %9, align 8
  %11 = zext i16 %10 to i32
  %12 = load i32, ptr %4, align 4
  %13 = mul nsw i32 %11, %12
  %14 = sext i32 %13 to i64
  %15 = getelementptr inbounds i16, ptr %7, i64 %14
  ret ptr %15
}

; Function Attrs: nounwind uwtable
define hidden void @av1_highbd_dist_wtd_convolve_y_c(ptr noundef %0, i32 noundef %1, ptr noundef %2, i32 noundef %3, i32 noundef %4, i32 noundef %5, ptr noundef %6, i32 noundef %7, ptr noundef %8, i32 noundef %9) #0 {
  %11 = alloca ptr, align 8
  %12 = alloca i32, align 4
  %13 = alloca ptr, align 8
  %14 = alloca i32, align 4
  %15 = alloca i32, align 4
  %16 = alloca i32, align 4
  %17 = alloca ptr, align 8
  %18 = alloca i32, align 4
  %19 = alloca ptr, align 8
  %20 = alloca i32, align 4
  %21 = alloca ptr, align 8
  %22 = alloca i32, align 4
  %23 = alloca i32, align 4
  %24 = alloca i32, align 4
  %25 = alloca i32, align 4
  %26 = alloca i32, align 4
  %27 = alloca i32, align 4
  %28 = alloca ptr, align 8
  %29 = alloca i32, align 4
  %30 = alloca i32, align 4
  %31 = alloca i32, align 4
  %32 = alloca i32, align 4
  %33 = alloca i32, align 4
  store ptr %0, ptr %11, align 8
  store i32 %1, ptr %12, align 4
  store ptr %2, ptr %13, align 8
  store i32 %3, ptr %14, align 4
  store i32 %4, ptr %15, align 4
  store i32 %5, ptr %16, align 4
  store ptr %6, ptr %17, align 8
  store i32 %7, ptr %18, align 4
  store ptr %8, ptr %19, align 8
  store i32 %9, ptr %20, align 4
  %34 = load ptr, ptr %19, align 8
  %35 = getelementptr inbounds nuw %struct.ConvolveParams, ptr %34, i32 0, i32 1
  %36 = load ptr, ptr %35, align 8
  store ptr %36, ptr %21, align 8
  %37 = load ptr, ptr %19, align 8
  %38 = getelementptr inbounds nuw %struct.ConvolveParams, ptr %37, i32 0, i32 2
  %39 = load i32, ptr %38, align 8
  store i32 %39, ptr %22, align 4
  %40 = load ptr, ptr %17, align 8
  %41 = getelementptr inbounds nuw %struct.InterpFilterParams, ptr %40, i32 0, i32 1
  %42 = load i16, ptr %41, align 8
  %43 = zext i16 %42 to i32
  %44 = sdiv i32 %43, 2
  %45 = sub nsw i32 %44, 1
  store i32 %45, ptr %23, align 4
  %46 = load ptr, ptr %19, align 8
  %47 = getelementptr inbounds nuw %struct.ConvolveParams, ptr %46, i32 0, i32 3
  %48 = load i32, ptr %47, align 4
  %49 = sub nsw i32 7, %48
  store i32 %49, ptr %24, align 4
  %50 = load i32, ptr %20, align 4
  %51 = add nsw i32 %50, 14
  %52 = load ptr, ptr %19, align 8
  %53 = getelementptr inbounds nuw %struct.ConvolveParams, ptr %52, i32 0, i32 3
  %54 = load i32, ptr %53, align 4
  %55 = sub nsw i32 %51, %54
  store i32 %55, ptr %25, align 4
  %56 = load i32, ptr %25, align 4
  %57 = load ptr, ptr %19, align 8
  %58 = getelementptr inbounds nuw %struct.ConvolveParams, ptr %57, i32 0, i32 4
  %59 = load i32, ptr %58, align 8
  %60 = sub nsw i32 %56, %59
  %61 = shl i32 1, %60
  %62 = load i32, ptr %25, align 4
  %63 = load ptr, ptr %19, align 8
  %64 = getelementptr inbounds nuw %struct.ConvolveParams, ptr %63, i32 0, i32 4
  %65 = load i32, ptr %64, align 8
  %66 = sub nsw i32 %62, %65
  %67 = sub nsw i32 %66, 1
  %68 = shl i32 1, %67
  %69 = add nsw i32 %61, %68
  store i32 %69, ptr %26, align 4
  %70 = load ptr, ptr %19, align 8
  %71 = getelementptr inbounds nuw %struct.ConvolveParams, ptr %70, i32 0, i32 3
  %72 = load i32, ptr %71, align 4
  %73 = sub nsw i32 14, %72
  %74 = load ptr, ptr %19, align 8
  %75 = getelementptr inbounds nuw %struct.ConvolveParams, ptr %74, i32 0, i32 4
  %76 = load i32, ptr %75, align 8
  %77 = sub nsw i32 %73, %76
  store i32 %77, ptr %27, align 4
  %78 = load ptr, ptr %17, align 8
  %79 = load i32, ptr %18, align 4
  %80 = and i32 %79, 15
  %81 = call ptr @av1_get_interp_filter_subpel_kernel(ptr noundef %78, i32 noundef %80)
  store ptr %81, ptr %28, align 8
  store i32 0, ptr %29, align 4
  br label %82

82:                                               ; preds = %220, %10
  %83 = load i32, ptr %29, align 4
  %84 = load i32, ptr %16, align 4
  %85 = icmp slt i32 %83, %84
  br i1 %85, label %86, label %223

86:                                               ; preds = %82
  store i32 0, ptr %30, align 4
  br label %87

87:                                               ; preds = %216, %86
  %88 = load i32, ptr %30, align 4
  %89 = load i32, ptr %15, align 4
  %90 = icmp slt i32 %88, %89
  br i1 %90, label %91, label %219

91:                                               ; preds = %87
  store i32 0, ptr %31, align 4
  store i32 0, ptr %32, align 4
  br label %92

92:                                               ; preds = %123, %91
  %93 = load i32, ptr %32, align 4
  %94 = load ptr, ptr %17, align 8
  %95 = getelementptr inbounds nuw %struct.InterpFilterParams, ptr %94, i32 0, i32 1
  %96 = load i16, ptr %95, align 8
  %97 = zext i16 %96 to i32
  %98 = icmp slt i32 %93, %97
  br i1 %98, label %99, label %126

99:                                               ; preds = %92
  %100 = load ptr, ptr %28, align 8
  %101 = load i32, ptr %32, align 4
  %102 = sext i32 %101 to i64
  %103 = getelementptr inbounds i16, ptr %100, i64 %102
  %104 = load i16, ptr %103, align 2
  %105 = sext i16 %104 to i32
  %106 = load ptr, ptr %11, align 8
  %107 = load i32, ptr %29, align 4
  %108 = load i32, ptr %23, align 4
  %109 = sub nsw i32 %107, %108
  %110 = load i32, ptr %32, align 4
  %111 = add nsw i32 %109, %110
  %112 = load i32, ptr %12, align 4
  %113 = mul nsw i32 %111, %112
  %114 = load i32, ptr %30, align 4
  %115 = add nsw i32 %113, %114
  %116 = sext i32 %115 to i64
  %117 = getelementptr inbounds i16, ptr %106, i64 %116
  %118 = load i16, ptr %117, align 2
  %119 = zext i16 %118 to i32
  %120 = mul nsw i32 %105, %119
  %121 = load i32, ptr %31, align 4
  %122 = add nsw i32 %121, %120
  store i32 %122, ptr %31, align 4
  br label %123

123:                                              ; preds = %99
  %124 = load i32, ptr %32, align 4
  %125 = add nsw i32 %124, 1
  store i32 %125, ptr %32, align 4
  br label %92, !llvm.loop !70

126:                                              ; preds = %92
  %127 = load i32, ptr %24, align 4
  %128 = shl i32 1, %127
  %129 = load i32, ptr %31, align 4
  %130 = mul nsw i32 %129, %128
  store i32 %130, ptr %31, align 4
  %131 = load i32, ptr %31, align 4
  %132 = load ptr, ptr %19, align 8
  %133 = getelementptr inbounds nuw %struct.ConvolveParams, ptr %132, i32 0, i32 4
  %134 = load i32, ptr %133, align 8
  %135 = shl i32 1, %134
  %136 = ashr i32 %135, 1
  %137 = add nsw i32 %131, %136
  %138 = load ptr, ptr %19, align 8
  %139 = getelementptr inbounds nuw %struct.ConvolveParams, ptr %138, i32 0, i32 4
  %140 = load i32, ptr %139, align 8
  %141 = ashr i32 %137, %140
  %142 = load i32, ptr %26, align 4
  %143 = add nsw i32 %141, %142
  store i32 %143, ptr %31, align 4
  %144 = load ptr, ptr %19, align 8
  %145 = getelementptr inbounds nuw %struct.ConvolveParams, ptr %144, i32 0, i32 0
  %146 = load i32, ptr %145, align 8
  %147 = icmp ne i32 %146, 0
  br i1 %147, label %148, label %204

148:                                              ; preds = %126
  %149 = load ptr, ptr %21, align 8
  %150 = load i32, ptr %29, align 4
  %151 = load i32, ptr %22, align 4
  %152 = mul nsw i32 %150, %151
  %153 = load i32, ptr %30, align 4
  %154 = add nsw i32 %152, %153
  %155 = sext i32 %154 to i64
  %156 = getelementptr inbounds i16, ptr %149, i64 %155
  %157 = load i16, ptr %156, align 2
  %158 = zext i16 %157 to i32
  store i32 %158, ptr %33, align 4
  %159 = load ptr, ptr %19, align 8
  %160 = getelementptr inbounds nuw %struct.ConvolveParams, ptr %159, i32 0, i32 7
  %161 = load i32, ptr %160, align 4
  %162 = icmp ne i32 %161, 0
  br i1 %162, label %163, label %177

163:                                              ; preds = %148
  %164 = load i32, ptr %33, align 4
  %165 = load ptr, ptr %19, align 8
  %166 = getelementptr inbounds nuw %struct.ConvolveParams, ptr %165, i32 0, i32 8
  %167 = load i32, ptr %166, align 8
  %168 = mul nsw i32 %164, %167
  %169 = load i32, ptr %31, align 4
  %170 = load ptr, ptr %19, align 8
  %171 = getelementptr inbounds nuw %struct.ConvolveParams, ptr %170, i32 0, i32 9
  %172 = load i32, ptr %171, align 4
  %173 = mul nsw i32 %169, %172
  %174 = add nsw i32 %168, %173
  store i32 %174, ptr %33, align 4
  %175 = load i32, ptr %33, align 4
  %176 = ashr i32 %175, 4
  store i32 %176, ptr %33, align 4
  br label %183

177:                                              ; preds = %148
  %178 = load i32, ptr %31, align 4
  %179 = load i32, ptr %33, align 4
  %180 = add nsw i32 %179, %178
  store i32 %180, ptr %33, align 4
  %181 = load i32, ptr %33, align 4
  %182 = ashr i32 %181, 1
  store i32 %182, ptr %33, align 4
  br label %183

183:                                              ; preds = %177, %163
  %184 = load i32, ptr %26, align 4
  %185 = load i32, ptr %33, align 4
  %186 = sub nsw i32 %185, %184
  store i32 %186, ptr %33, align 4
  %187 = load i32, ptr %33, align 4
  %188 = load i32, ptr %27, align 4
  %189 = shl i32 1, %188
  %190 = ashr i32 %189, 1
  %191 = add nsw i32 %187, %190
  %192 = load i32, ptr %27, align 4
  %193 = ashr i32 %191, %192
  %194 = load i32, ptr %20, align 4
  %195 = call zeroext i16 @clip_pixel_highbd(i32 noundef %193, i32 noundef %194)
  %196 = load ptr, ptr %13, align 8
  %197 = load i32, ptr %29, align 4
  %198 = load i32, ptr %14, align 4
  %199 = mul nsw i32 %197, %198
  %200 = load i32, ptr %30, align 4
  %201 = add nsw i32 %199, %200
  %202 = sext i32 %201 to i64
  %203 = getelementptr inbounds i16, ptr %196, i64 %202
  store i16 %195, ptr %203, align 2
  br label %215

204:                                              ; preds = %126
  %205 = load i32, ptr %31, align 4
  %206 = trunc i32 %205 to i16
  %207 = load ptr, ptr %21, align 8
  %208 = load i32, ptr %29, align 4
  %209 = load i32, ptr %22, align 4
  %210 = mul nsw i32 %208, %209
  %211 = load i32, ptr %30, align 4
  %212 = add nsw i32 %210, %211
  %213 = sext i32 %212 to i64
  %214 = getelementptr inbounds i16, ptr %207, i64 %213
  store i16 %206, ptr %214, align 2
  br label %215

215:                                              ; preds = %204, %183
  br label %216

216:                                              ; preds = %215
  %217 = load i32, ptr %30, align 4
  %218 = add nsw i32 %217, 1
  store i32 %218, ptr %30, align 4
  br label %87, !llvm.loop !71

219:                                              ; preds = %87
  br label %220

220:                                              ; preds = %219
  %221 = load i32, ptr %29, align 4
  %222 = add nsw i32 %221, 1
  store i32 %222, ptr %29, align 4
  br label %82, !llvm.loop !72

223:                                              ; preds = %82
  ret void
}