; Function Attrs: nofree norecurse nosync nounwind memory(readwrite, inaccessiblemem: none) uwtable
define hidden void @av1_highbd_dist_wtd_convolve_y_c(ptr noundef readonly captures(none) %0, i32 noundef %1, ptr noundef writeonly captures(none) %2, i32 noundef %3, i32 noundef %4, i32 noundef %5, ptr noundef readonly captures(none) %6, i32 noundef %7, ptr noundef readonly captures(none) %8, i32 noundef %9) local_unnamed_addr #2 {
  %11 = getelementptr inbounds nuw i8, ptr %8, i64 8
  %12 = load ptr, ptr %11, align 8
  %13 = getelementptr inbounds nuw i8, ptr %8, i64 16
  %14 = load i32, ptr %13, align 8
  %15 = getelementptr inbounds nuw i8, ptr %6, i64 8
  %16 = load i16, ptr %15, align 8
  %17 = getelementptr inbounds nuw i8, ptr %8, i64 20
  %18 = load i32, ptr %17, align 4
  %19 = sub nsw i32 7, %18
  %20 = add nsw i32 %9, 14
  %21 = getelementptr inbounds nuw i8, ptr %8, i64 24
  %22 = load i32, ptr %21, align 8
  %23 = add i32 %22, %18
  %24 = sub i32 %20, %23
  %25 = shl nuw i32 1, %24
  %26 = add nsw i32 %24, -1
  %27 = shl nuw i32 1, %26
  %28 = add nsw i32 %27, %25
  %29 = sub i32 14, %23
  %30 = and i32 %7, 15
  %.val = load ptr, ptr %6, align 8
  %31 = zext i16 %16 to i32
  %32 = mul nuw nsw i32 %30, %31
  %33 = zext nneg i32 %32 to i64
  %34 = getelementptr inbounds nuw i16, ptr %.val, i64 %33
  %35 = icmp sgt i32 %5, 0
  br i1 %35, label %.preheader75.lr.ph, label %._crit_edge81

.preheader75.lr.ph:                               ; preds = %10
  %36 = icmp sgt i32 %4, 0
  %37 = getelementptr inbounds nuw i8, ptr %8, i64 36
  %38 = getelementptr inbounds nuw i8, ptr %8, i64 40
  %39 = getelementptr inbounds nuw i8, ptr %8, i64 44
  %40 = shl nuw i32 1, %29
  %41 = ashr i32 %40, 1
  %42 = sub i32 %41, %28
  br i1 %36, label %.preheader75.us.preheader, label %._crit_edge81

.preheader75.us.preheader:                        ; preds = %.preheader75.lr.ph
  %43 = lshr i16 %16, 1
  %44 = sext i32 %1 to i64
  %45 = sext i32 %14 to i64
  %46 = sext i32 %3 to i64
  %47 = zext nneg i16 %43 to i64
  %wide.trip.count95 = zext nneg i32 %5 to i64
  %wide.trip.count88 = zext nneg i32 %4 to i64
  br label %.preheader75.us

.preheader75.us:                                  ; preds = %.preheader75.us.preheader, %._crit_edge79.us
  %indvars.iv90 = phi i64 [ 0, %.preheader75.us.preheader ], [ %indvars.iv.next91, %._crit_edge79.us ]
  %48 = sub nsw i64 %indvars.iv90, %47
  %49 = add nsw i64 %48, 1
  %50 = mul nsw i64 %indvars.iv90, %45
  %51 = mul nsw i64 %indvars.iv90, %46
  %invariant.gep97 = getelementptr i16, ptr %12, i64 %50
  %invariant.gep99 = getelementptr i16, ptr %2, i64 %51
  %invariant.gep101 = getelementptr i16, ptr %12, i64 %50
  br label %.preheader.us

._crit_edge.us:                                   ; preds = %.lr.ph.us, %.preheader.us
  %.067.lcssa.us = phi i32 [ 0, %.preheader.us ], [ %96, %.lr.ph.us ]
  %52 = shl i32 %.067.lcssa.us, %19
  %53 = load i32, ptr %21, align 8
  %54 = shl nuw i32 1, %53
  %55 = ashr i32 %54, 1
  %56 = add nsw i32 %55, %52
  %57 = ashr i32 %56, %53
  %58 = add nsw i32 %57, %28
  %59 = load i32, ptr %8, align 8
  %.not.us = icmp eq i32 %59, 0
  br i1 %.not.us, label %85, label %60

60:                                               ; preds = %._crit_edge.us
  %gep98 = getelementptr i16, ptr %invariant.gep97, i64 %indvars.iv85
  %61 = load i16, ptr %gep98, align 2
  %62 = zext i16 %61 to i32
  %63 = load i32, ptr %37, align 4
  %.not70.us = icmp eq i32 %63, 0
  br i1 %.not70.us, label %71, label %64

64:                                               ; preds = %60
  %65 = load i32, ptr %38, align 8
  %66 = mul nsw i32 %65, %62
  %67 = load i32, ptr %39, align 4
  %68 = mul nsw i32 %67, %58
  %69 = add nsw i32 %68, %66
  %70 = ashr i32 %69, 4
  br label %74

71:                                               ; preds = %60
  %72 = add nsw i32 %58, %62
  %73 = ashr i32 %72, 1
  br label %74

74:                                               ; preds = %71, %64
  %.0.us = phi i32 [ %70, %64 ], [ %73, %71 ]
  %75 = add i32 %42, %.0.us
  %76 = ashr i32 %75, %29
  switch i32 %9, label %81 [
    i32 12, label %79
    i32 10, label %77
  ]

77:                                               ; preds = %74
  %78 = tail call i32 @llvm.umin.i32(i32 %76, i32 1023)
  br label %clip_pixel_highbd.exit.us

79:                                               ; preds = %74
  %80 = tail call i32 @llvm.umin.i32(i32 %76, i32 4095)
  br label %clip_pixel_highbd.exit.us

81:                                               ; preds = %74
  %82 = tail call i32 @llvm.umin.i32(i32 %76, i32 255)
  br label %clip_pixel_highbd.exit.us

clip_pixel_highbd.exit.us:                        ; preds = %81, %79, %77
  %.sink.i.us = phi i32 [ %80, %79 ], [ %78, %77 ], [ %82, %81 ]
  %83 = icmp slt i32 %76, 0
  %84 = trunc nuw nsw i32 %.sink.i.us to i16
  %.0.i.us = select i1 %83, i16 0, i16 %84
  br label %87

85:                                               ; preds = %._crit_edge.us
  %86 = trunc i32 %58 to i16
  br label %87

87:                                               ; preds = %85, %clip_pixel_highbd.exit.us
  %invariant.gep101.sink = phi ptr [ %invariant.gep101, %85 ], [ %invariant.gep99, %clip_pixel_highbd.exit.us ]
  %.sink = phi i16 [ %86, %85 ], [ %.0.i.us, %clip_pixel_highbd.exit.us ]
  %gep102 = getelementptr i16, ptr %invariant.gep101.sink, i64 %indvars.iv85
  store i16 %.sink, ptr %gep102, align 2
  %indvars.iv.next86 = add nuw nsw i64 %indvars.iv85, 1
  %exitcond89.not = icmp eq i64 %indvars.iv.next86, %wide.trip.count88
  br i1 %exitcond89.not, label %._crit_edge79.us, label %.preheader.us, !llvm.loop !70

.lr.ph.us:                                        ; preds = %.lr.ph.us.preheader, %.lr.ph.us
  %indvars.iv = phi i64 [ 0, %.lr.ph.us.preheader ], [ %indvars.iv.next, %.lr.ph.us ]
  %.06776.us = phi i32 [ 0, %.lr.ph.us.preheader ], [ %96, %.lr.ph.us ]
  %88 = getelementptr inbounds nuw i16, ptr %34, i64 %indvars.iv
  %89 = load i16, ptr %88, align 2
  %90 = sext i16 %89 to i32
  %91 = add nsw i64 %49, %indvars.iv
  %92 = mul nsw i64 %91, %44
  %gep = getelementptr i16, ptr %invariant.gep, i64 %92
  %93 = load i16, ptr %gep, align 2
  %94 = zext i16 %93 to i32
  %95 = mul nsw i32 %94, %90
  %96 = add nsw i32 %95, %.06776.us
  %indvars.iv.next = add nuw nsw i64 %indvars.iv, 1
  %exitcond.not = icmp eq i64 %indvars.iv.next, %wide.trip.count
  br i1 %exitcond.not, label %._crit_edge.us, label %.lr.ph.us, !llvm.loop !71

.preheader.us:                                    ; preds = %.preheader75.us, %87
  %indvars.iv85 = phi i64 [ 0, %.preheader75.us ], [ %indvars.iv.next86, %87 ]
  %97 = load i16, ptr %15, align 8
  %.not = icmp eq i16 %97, 0
  br i1 %.not, label %._crit_edge.us, label %.lr.ph.us.preheader

.lr.ph.us.preheader:                              ; preds = %.preheader.us
  %wide.trip.count = zext i16 %97 to i64
  %invariant.gep = getelementptr i16, ptr %0, i64 %indvars.iv85
  br label %.lr.ph.us

._crit_edge79.us:                                 ; preds = %87
  %indvars.iv.next91 = add nuw nsw i64 %indvars.iv90, 1
  %exitcond96.not = icmp eq i64 %indvars.iv.next91, %wide.trip.count95
  br i1 %exitcond96.not, label %._crit_edge81, label %.preheader75.us, !llvm.loop !72

._crit_edge81:                                    ; preds = %._crit_edge79.us, %.preheader75.lr.ph, %10
  ret void
}